; Function Attrs: nounwind uwtable
define zeroext range(i8 0, 2) i8 @l_Std_DHashMap_Internal_AssocList_contains___at_Lean_Elab_Tactic_BVDecide_LRAT_trim_M_run___spec__1(ptr noundef %0, ptr noundef %1) local_unnamed_addr #0 {
  %3 = ptrtoint ptr %0 to i64
  %4 = and i64 %3, 1
  br label %.backedge

.backedge:                                        ; preds = %.backedge.backedge, %2
  %.011 = phi ptr [ %1, %2 ], [ %18, %.backedge.backedge ]
  %5 = ptrtoint ptr %.011 to i64
  %6 = and i64 %5, 1
  %.not.i = icmp eq i64 %6, 0
  br i1 %.not.i, label %10, label %7

7:                                                ; preds = %.backedge
  %8 = lshr i64 %5, 1
  %9 = trunc i64 %8 to i32
  br label %lean_obj_tag.exit

10:                                               ; preds = %.backedge
  %11 = getelementptr i8, ptr %.011, i64 4
  %.val.i = load i32, ptr %11, align 4
  %12 = lshr i32 %.val.i, 24
  br label %lean_obj_tag.exit

lean_obj_tag.exit:                                ; preds = %7, %10
  %.0.i13 = phi i32 [ %9, %7 ], [ %12, %10 ]
  %13 = icmp eq i32 %.0.i13, 0
  br i1 %13, label %24, label %14

14:                                               ; preds = %lean_obj_tag.exit
  %15 = getelementptr inbounds nuw i8, ptr %.011, i64 8
  %16 = load ptr, ptr %15, align 8, !tbaa !13
  %17 = getelementptr inbounds nuw i8, ptr %.011, i64 24
  %18 = load ptr, ptr %17, align 8, !tbaa !13
  %19 = ptrtoint ptr %16 to i64
  %20 = and i64 %4, %19
  %or.cond.not = icmp eq i64 %20, 0
  br i1 %or.cond.not, label %lean_nat_eq.exit, label %21, !prof !15

21:                                               ; preds = %14
  %22 = icmp eq ptr %16, %0
  br i1 %22, label %24, label %.backedge.backedge

lean_nat_eq.exit:                                 ; preds = %14
  %23 = tail call zeroext i1 @lean_nat_big_eq(ptr noundef %16, ptr noundef %0) #3
  br i1 %23, label %24, label %.backedge.backedge

.backedge.backedge:                               ; preds = %lean_nat_eq.exit, %21
  br label %.backedge

24:                                               ; preds = %21, %lean_nat_eq.exit, %lean_obj_tag.exit
  %.1 = phi i8 [ 1, %lean_nat_eq.exit ], [ 0, %lean_obj_tag.exit ], [ 1, %21 ]
  ret i8 %.1
}